target datalayout = "e-m:e-p270:32:32-p271:32:32-p272:64:64-i64:64-i128:128-f80:128-n8:16:32:64-S128"
target triple = "x86_64-pc-linux-gnu"

%"class.clang::QualType" = type { %"class.llvm::PointerIntPair.139" }
%"class.llvm::PointerIntPair.139" = type { %"struct.llvm::detail::PunnedPointer.140" }
%"struct.llvm::detail::PunnedPointer.140" = type { [8 x i8] }
%"class.clang::SourceLocation" = type { i32 }
%"class.llvm::PointerIntPair" = type { %"struct.llvm::detail::PunnedPointer" }
%"struct.llvm::detail::PunnedPointer" = type { [8 x i8] }
%"class.llvm::PointerUnion" = type { %"class.llvm::pointer_union_detail::PointerUnionMembers" }
%"class.llvm::pointer_union_detail::PointerUnionMembers" = type { %"class.llvm::pointer_union_detail::PointerUnionMembers.0" }
%"class.llvm::pointer_union_detail::PointerUnionMembers.0" = type { %"class.llvm::pointer_union_detail::PointerUnionMembers.1" }
%"class.llvm::pointer_union_detail::PointerUnionMembers.1" = type { %"class.llvm::PointerIntPair.2" }
%"class.llvm::PointerIntPair.2" = type { %"struct.llvm::detail::PunnedPointer.3" }
%"struct.llvm::detail::PunnedPointer.3" = type { [8 x i8] }
%"class.clang::Decl.base" = type <{ ptr, %"class.llvm::PointerIntPair", %"class.llvm::PointerUnion", %"class.clang::SourceLocation", i32, i8 }>
%"class.clang::DeclContext" = type { ptr, %union.anon.428, ptr, ptr }
%union.anon.428 = type { %"class.clang::DeclContext::RecordDeclBitfields" }
%"class.clang::DeclContext::RecordDeclBitfields" = type { i64 }
%"class.llvm::PointerUnion.429" = type { %"class.llvm::pointer_union_detail::PointerUnionMembers.430" }
%"class.llvm::pointer_union_detail::PointerUnionMembers.430" = type { %"class.llvm::pointer_union_detail::PointerUnionMembers.431" }
%"class.llvm::pointer_union_detail::PointerUnionMembers.431" = type { %"class.llvm::pointer_union_detail::PointerUnionMembers.432" }
%"class.llvm::pointer_union_detail::PointerUnionMembers.432" = type { %"class.llvm::PointerIntPair.433" }
%"class.llvm::PointerIntPair.433" = type { %"struct.llvm::detail::PunnedPointer.3" }
%"class.clang::DeclaratorDecl.base" = type <{ %"class.clang::ValueDecl", %"class.llvm::PointerUnion.438", %"class.clang::SourceLocation" }>
%"class.clang::ValueDecl" = type { %"class.clang::NamedDecl", %"class.clang::QualType" }
%"class.clang::NamedDecl" = type { %"class.clang::Decl.base", %"class.clang::DeclarationName" }
%"class.clang::DeclarationName" = type { i64 }
%"class.llvm::PointerUnion.438" = type { %"class.llvm::pointer_union_detail::PointerUnionMembers.439" }
%"class.llvm::pointer_union_detail::PointerUnionMembers.439" = type { %"class.llvm::pointer_union_detail::PointerUnionMembers.440" }
%"class.llvm::pointer_union_detail::PointerUnionMembers.440" = type { %"class.llvm::pointer_union_detail::PointerUnionMembers.441" }
%"class.llvm::pointer_union_detail::PointerUnionMembers.441" = type { %"class.llvm::PointerIntPair.442" }
%"class.llvm::PointerIntPair.442" = type { %"struct.llvm::detail::PunnedPointer.3" }
%"class.clang::FunctionDecl" = type { %"class.clang::DeclaratorDecl.base", %"class.clang::DeclContext", %"class.clang::Redeclarable.543", ptr, %union.anon.544, i32, %"class.clang::SourceLocation", %"class.clang::SourceLocation", [4 x i8], %"class.llvm::PointerUnion.545", %"class.clang::DeclarationNameLoc" }
%"class.clang::Redeclarable.543" = type { %"class.clang::Redeclarable<clang::FunctionDecl>::DeclLink", ptr }
%"class.clang::Redeclarable<clang::FunctionDecl>::DeclLink" = type { %"class.llvm::PointerUnion.429" }
%union.anon.544 = type { %"struct.clang::LazyOffsetPtr" }
%"struct.clang::LazyOffsetPtr" = type { i64 }
%"class.llvm::PointerUnion.545" = type { %"class.llvm::pointer_union_detail::PointerUnionMembers.546" }
%"class.llvm::pointer_union_detail::PointerUnionMembers.546" = type { %"class.llvm::pointer_union_detail::PointerUnionMembers.547" }
%"class.llvm::pointer_union_detail::PointerUnionMembers.547" = type { %"class.llvm::pointer_union_detail::PointerUnionMembers.548" }
%"class.llvm::pointer_union_detail::PointerUnionMembers.548" = type { %"class.llvm::pointer_union_detail::PointerUnionMembers.549" }
%"class.llvm::pointer_union_detail::PointerUnionMembers.549" = type { %"class.llvm::pointer_union_detail::PointerUnionMembers.550" }
%"class.llvm::pointer_union_detail::PointerUnionMembers.550" = type { %"class.llvm::PointerIntPair.551" }
%"class.llvm::PointerIntPair.551" = type { %"struct.llvm::detail::PunnedPointer.3" }
%"class.clang::DeclarationNameLoc" = type { %union.anon.552 }
%union.anon.552 = type { %"struct.clang::DeclarationNameLoc::NT" }
%"struct.clang::DeclarationNameLoc::NT" = type { ptr }
%"class.clang::DeclContext::FunctionDeclBitfields" = type <{ i16, i32, [2 x i8] }>

; Function Attrs: mustprogress nounwind uwtable
define dso_local noundef ptr @_ZNK5clang12FunctionDecl25getDefalutedOrDeletedInfoEv(ptr noundef nonnull align 8 dereferenceable(168) %0) #0 align 2 {
  %2 = alloca ptr, align 8
  store ptr %0, ptr %2, align 8
  %3 = load ptr, ptr %2, align 8
  %4 = getelementptr inbounds i8, ptr %3, i64 72
  %5 = getelementptr inbounds nuw %"class.clang::DeclContext", ptr %4, i32 0, i32 1
  %6 = getelementptr inbounds nuw %"class.clang::DeclContext::FunctionDeclBitfields", ptr %5, i32 0, i32 1
  %7 = load i32, ptr %6, align 2
  %8 = lshr i32 %7, 11
  %9 = and i32 %8, 1
  %10 = zext i32 %9 to i64
  %11 = icmp ne i64 %10, 0
  br i1 %11, label %12, label %15

12:                                               ; preds = %1
  %13 = getelementptr inbounds nuw %"class.clang::FunctionDecl", ptr %3, i32 0, i32 4
  %14 = load ptr, ptr %13, align 8
  br label %16

15:                                               ; preds = %1
  br label %16

16:                                               ; preds = %15, %12
  %17 = phi ptr [ %14, %12 ], [ null, %15 ]
  ret ptr %17
}