; Function Attrs: mustprogress nofree norecurse nosync nounwind willreturn memory(argmem: read) uwtable
define dso_local noundef ptr @_ZNK5clang12FunctionDecl25getDefalutedOrDeletedInfoEv(ptr nocapture noundef nonnull readonly align 8 dereferenceable(168) %0) local_unnamed_addr #6 align 2 {
  %2 = getelementptr inbounds i8, ptr %0, i64 82
  %3 = load i32, ptr %2, align 2
  %4 = and i32 %3, 2048
  %.not = icmp eq i32 %4, 0
  %5 = getelementptr inbounds nuw i8, ptr %0, i64 128
  %6 = load ptr, ptr %5, align 8
  %7 = select i1 %.not, ptr null, ptr %6
  ret ptr %7
}